; Function Attrs: mustprogress uwtable
define void @_ZN6icu_7712NumberFormat24setMaximumFractionDigitsEi(ptr noundef nonnull align 8 captures(none) dereferenceable(60) initializes((36, 40)) %0, i32 noundef %1) unnamed_addr #1 align 2 {
  %3 = tail call i32 @uprv_min_77(i32 noundef %1, i32 noundef 2000000000)
  %4 = tail call i32 @uprv_max_77(i32 noundef 0, i32 noundef %3)
  %5 = getelementptr inbounds nuw i8, ptr %0, i64 36
  store i32 %4, ptr %5, align 4, !tbaa !31
  %6 = getelementptr inbounds nuw i8, ptr %0, i64 40
  %7 = load i32, ptr %6, align 8, !tbaa !32
  %8 = icmp slt i32 %4, %7
  br i1 %8, label %9, label %10

9:                                                ; preds = %2
  store i32 %4, ptr %6, align 8, !tbaa !32
  br label %10

10:                                               ; preds = %9, %2
  ret void
}